target datalayout = "e-m:e-p270:32:32-p271:32:32-p272:64:64-i64:64-i128:128-f80:128-n8:16:32:64-S128"
target triple = "x86_64-pc-linux-gnu"

%class.RandomNumber = type { ptr, ptr, %"class.std::map", i64 }
%"class.std::map" = type { %"class.std::_Rb_tree" }
%"class.std::_Rb_tree" = type { %"struct.std::_Rb_tree<RNDNUM_GENERATOR, std::pair<const RNDNUM_GENERATOR, AbsRndNumGenerator *>, std::_Select1st<std::pair<const RNDNUM_GENERATOR, AbsRndNumGenerator *>>, std::less<RNDNUM_GENERATOR>>::_Rb_tree_impl" }
%"struct.std::_Rb_tree<RNDNUM_GENERATOR, std::pair<const RNDNUM_GENERATOR, AbsRndNumGenerator *>, std::_Select1st<std::pair<const RNDNUM_GENERATOR, AbsRndNumGenerator *>>, std::less<RNDNUM_GENERATOR>>::_Rb_tree_impl" = type { %"struct.std::_Rb_tree_key_compare", %"struct.std::_Rb_tree_header" }
%"struct.std::_Rb_tree_key_compare" = type { %"struct.std::less" }
%"struct.std::less" = type { i8 }
%"struct.std::_Rb_tree_header" = type { %"struct.std::_Rb_tree_node_base", i64 }
%"struct.std::_Rb_tree_node_base" = type { i32, ptr, ptr, ptr }

@_ZN12RandomNumber9instance_E = dso_local global ptr null, align 8
@_ZN12RandomNumberC1Em = dso_local unnamed_addr alias void (ptr, i64), ptr @_ZN12RandomNumberC2Em

; Function Attrs: mustprogress uwtable
define dso_local void @_ZN12RandomNumber14CreateInstanceE16RNDNUM_GENERATORm(i32 noundef %0, i64 noundef %1) #4 align 2 personality ptr @__gxx_personality_v0 {
  %3 = alloca i32, align 4
  %4 = alloca i64, align 8
  %5 = alloca ptr, align 8
  %6 = alloca i32, align 4
  %7 = alloca ptr, align 8
  store i32 %0, ptr %3, align 4
  store i64 %1, ptr %4, align 8
  %8 = load ptr, ptr @_ZN12RandomNumber9instance_E, align 8
  %9 = icmp ne ptr %8, null
  br i1 %9, label %28, label %10

10:                                               ; preds = %2
  %11 = call noalias noundef nonnull ptr @_Znwm(i64 noundef 72) #13
  %12 = load i64, ptr %4, align 8
  invoke void @_ZN12RandomNumberC1Em(ptr noundef nonnull align 8 dereferenceable(72) %11, i64 noundef %12)
          to label %13 unwind label %24

13:                                               ; preds = %10
  store ptr %11, ptr @_ZN12RandomNumber9instance_E, align 8
  %14 = load i32, ptr %3, align 4
  %15 = load i64, ptr %4, align 8
  %16 = call noundef ptr @_ZN18AbsRndNumGenerator21make_rndnum_generatorE16RNDNUM_GENERATORm(i32 noundef %14, i64 noundef %15)
  store ptr %16, ptr %7, align 8
  %17 = load ptr, ptr %7, align 8
  %18 = load ptr, ptr @_ZN12RandomNumber9instance_E, align 8
  %19 = getelementptr inbounds %class.RandomNumber, ptr %18, i32 0, i32 1
  store ptr %17, ptr %19, align 8
  %20 = load ptr, ptr %7, align 8
  %21 = load ptr, ptr @_ZN12RandomNumber9instance_E, align 8
  %22 = getelementptr inbounds %class.RandomNumber, ptr %21, i32 0, i32 2
  %23 = call noundef nonnull align 8 dereferenceable(8) ptr @_ZNSt3mapI16RNDNUM_GENERATORP18AbsRndNumGeneratorSt4lessIS0_ESaISt4pairIKS0_S2_EEEixERS6_(ptr noundef nonnull align 8 dereferenceable(48) %22, ptr noundef nonnull align 4 dereferenceable(4) %3)
  store ptr %20, ptr %23, align 8
  br label %35

24:                                               ; preds = %10
  %25 = landingpad { ptr, i32 }
          cleanup
  %26 = extractvalue { ptr, i32 } %25, 0
  store ptr %26, ptr %5, align 8
  %27 = extractvalue { ptr, i32 } %25, 1
  store i32 %27, ptr %6, align 4
  call void @_ZdlPv(ptr noundef %11) #12
  br label %36

28:                                               ; preds = %2
  %29 = load ptr, ptr @_ZN12RandomNumber9instance_E, align 8
  %30 = getelementptr inbounds %class.RandomNumber, ptr %29, i32 0, i32 2
  %31 = call noundef nonnull align 8 dereferenceable(8) ptr @_ZNSt3mapI16RNDNUM_GENERATORP18AbsRndNumGeneratorSt4lessIS0_ESaISt4pairIKS0_S2_EEEixERS6_(ptr noundef nonnull align 8 dereferenceable(48) %30, ptr noundef nonnull align 4 dereferenceable(4) %3)
  %32 = load ptr, ptr %31, align 8
  %33 = load ptr, ptr @_ZN12RandomNumber9instance_E, align 8
  %34 = getelementptr inbounds %class.RandomNumber, ptr %33, i32 0, i32 1
  store ptr %32, ptr %34, align 8
  br label %35

35:                                               ; preds = %28, %13
  ret void

36:                                               ; preds = %24
  %37 = load ptr, ptr %5, align 8
  %38 = load i32, ptr %6, align 4
  %39 = insertvalue { ptr, i32 } poison, ptr %37, 0
  %40 = insertvalue { ptr, i32 } %39, i32 %38, 1
  resume { ptr, i32 } %40
}