; Function Attrs: mustprogress uwtable
define dso_local void @_ZN12RandomNumber14CreateInstanceE16RNDNUM_GENERATORm(i32 noundef %0, i64 noundef %1) local_unnamed_addr #3 align 2 personality ptr @__gxx_personality_v0 {
  %3 = alloca i32, align 4
  %4 = alloca i32, align 4
  store i32 %0, ptr %4, align 4
  %5 = load ptr, ptr @_ZN12RandomNumber9instance_E, align 8
  %.not = icmp eq ptr %5, null
  br i1 %.not, label %6, label %27

6:                                                ; preds = %2
  %7 = tail call noalias noundef nonnull dereferenceable(72) ptr @_Znwm(i64 noundef 72) #14
  call void @llvm.lifetime.start.p0(i64 4, ptr nonnull %3)
  store ptr getelementptr inbounds ({ [8 x ptr] }, ptr @_ZTV12RandomNumber, i64 0, i32 0, i64 2), ptr %7, align 8
  %8 = getelementptr inbounds i8, ptr %7, i64 16
  %9 = getelementptr inbounds i8, ptr %7, i64 24
  store i32 0, ptr %9, align 8
  %10 = getelementptr inbounds i8, ptr %7, i64 32
  store ptr null, ptr %10, align 8
  %11 = getelementptr inbounds i8, ptr %7, i64 40
  store ptr %9, ptr %11, align 8
  %12 = getelementptr inbounds i8, ptr %7, i64 48
  store ptr %9, ptr %12, align 8
  %13 = getelementptr inbounds i8, ptr %7, i64 56
  store i64 0, ptr %13, align 8
  %14 = getelementptr inbounds i8, ptr %7, i64 64
  store i64 %1, ptr %14, align 8
  br label %15

15:                                               ; preds = %18, %6
  %16 = phi i1 [ true, %6 ], [ false, %18 ]
  %.07.i = phi i32 [ 0, %6 ], [ 1, %18 ]
  store i32 %.07.i, ptr %3, align 4
  %17 = invoke noundef nonnull align 8 dereferenceable(8) ptr @_ZNSt3mapI16RNDNUM_GENERATORP18AbsRndNumGeneratorSt4lessIS0_ESaISt4pairIKS0_S2_EEEixERS6_(ptr noundef nonnull align 8 dereferenceable(48) %8, ptr noundef nonnull align 4 dereferenceable(4) %3)
          to label %18 unwind label %.body

18:                                               ; preds = %15
  store ptr null, ptr %17, align 8
  br i1 %16, label %15, label %20, !llvm.loop !5

.body:                                            ; preds = %15
  %19 = landingpad { ptr, i32 }
          cleanup
  call void @_ZNSt3mapI16RNDNUM_GENERATORP18AbsRndNumGeneratorSt4lessIS0_ESaISt4pairIKS0_S2_EEED2Ev(ptr noundef nonnull align 8 dereferenceable(48) %8) #13
  call void @_ZdlPv(ptr noundef nonnull %7) #15
  resume { ptr, i32 } %19

20:                                               ; preds = %18
  call void @llvm.lifetime.end.p0(i64 4, ptr nonnull %3)
  store ptr %7, ptr @_ZN12RandomNumber9instance_E, align 8
  %21 = load i32, ptr %4, align 4
  %22 = call noundef ptr @_ZN18AbsRndNumGenerator21make_rndnum_generatorE16RNDNUM_GENERATORm(i32 noundef %21, i64 noundef %1)
  %23 = load ptr, ptr @_ZN12RandomNumber9instance_E, align 8
  %24 = getelementptr inbounds i8, ptr %23, i64 8
  store ptr %22, ptr %24, align 8
  %25 = getelementptr inbounds i8, ptr %23, i64 16
  %26 = call noundef nonnull align 8 dereferenceable(8) ptr @_ZNSt3mapI16RNDNUM_GENERATORP18AbsRndNumGeneratorSt4lessIS0_ESaISt4pairIKS0_S2_EEEixERS6_(ptr noundef nonnull align 8 dereferenceable(48) %25, ptr noundef nonnull align 4 dereferenceable(4) %4)
  store ptr %22, ptr %26, align 8
  br label %33

27:                                               ; preds = %2
  %28 = getelementptr inbounds i8, ptr %5, i64 16
  %29 = call noundef nonnull align 8 dereferenceable(8) ptr @_ZNSt3mapI16RNDNUM_GENERATORP18AbsRndNumGeneratorSt4lessIS0_ESaISt4pairIKS0_S2_EEEixERS6_(ptr noundef nonnull align 8 dereferenceable(48) %28, ptr noundef nonnull align 4 dereferenceable(4) %4)
  %30 = load ptr, ptr %29, align 8
  %31 = load ptr, ptr @_ZN12RandomNumber9instance_E, align 8
  %32 = getelementptr inbounds i8, ptr %31, i64 8
  store ptr %30, ptr %32, align 8
  br label %33

33:                                               ; preds = %27, %20
  ret void
}